(dp0
S'julie1380@gmail.com'
p1
S'\xe6\x9c\xb1\xe5\x88\xa9\xe8\x8e\x89'
p2
sS'dieyun.1986@gmail.com'
p3
S'Dieyun'
p4
sS'barry.zzy0@gmail.com'
p5
S'Barry'
p6
sS'marks.chen@finereport.com'
p7
S'Marks'
p8
sS'liyt0915@gmail.com'
p9
S'Carl'
p10
sS'littlesail.13@gmail.com'
p11
S'Sail'
p12
sS'kunsnat@gmail.com'
p13
S'Kunsnat'
p14
sS'hxyzero@gmail.com'
p15
S'Zero'
p16
sS'sam.sun@finereport.com'
p17
S'Sam'
p18
sS'fanfan709@gmail.com'
p19
S'Fanfan'
p20
sS'jerny1118@gmail.com'
p21
S'\xe7\xba\xaa\xe5\xad\xa6\xe7\xbe\x8e'
p22
sS'peter@finereport.com'
p23
S'Peter'
p24
sS'smilewang123@gmail.com'
p25
S'Smile'
p26
sS'alexgrowing@gmail.com'
p27
S'Alex'
p28
sS'zhouhai737@gmail.com'
p29
S'\xe5\x91\xa8\xe6\xb5\xb7'
p30
sS'echo.wang@finereport.com'
p31
S'Echo'
p32
sS'tiny1204@gmail.com'
p33
S'Tiny'
p34
sS'namucuodeyu2006@gmail.com'
p35
S'\xe8\xa2\x81\xe4\xba\x8e\xe4\xb8\xb9'
p36
sS'michael.zou@finereport.com'
p37
S'\xe9\x82\xb9\xe5\x87\xaf'
p38
sS'wxiaoyin@gmail.com'
p39
S'Denny'
p40
sS'jihua.me@gmail.com'
p41
S'Richie'
p42
sS'zhuchen880810@gmail.com'
p43
S'\xe6\x9c\xb1\xe6\x99\xa8'
p44
sS'xhlaxhla@gmail.com'
p45
S'\xe5\xbe\x90\xe5\xae\x8f\xe4\xba\xae'
p46
sS'casilin2009@gmail.com'
p47
S'Casilin'
p48
sS'yeling.baby@gmail.com'
p49
S'\xe5\x91\xa8\xe5\x8f\xb6\xe7\x8e\xb2'
p50
s.